; Function Attrs: alwaysinline norecurse nounwind ssp uwtable
define internal void @"_ZN6open3d4core15ParallelForCPU_IZZZNS_1t2ioL17PackColorsToFloatERKNS0_6TensorEENK3$_0clEvENKUlvE7_clEvEUllE_EEvRKNS0_6DeviceElRKT_.omp_outlined"(ptr noalias noundef readonly captures(none) %0, ptr noalias readnone captures(none) %1, ptr noundef nonnull readonly align 8 captures(none) dereferenceable(8) %2, ptr noundef nonnull readonly align 8 captures(none) dereferenceable(16) %3) #29 personality ptr @__gxx_personality_v0 {
  %5 = alloca [4 x i8], align 4
  %6 = alloca i64, align 8
  %7 = alloca i64, align 8
  %8 = alloca i64, align 8
  %9 = alloca i32, align 4
  %10 = load i64, ptr %2, align 8, !tbaa !51
  %11 = icmp sgt i64 %10, 0
  br i1 %11, label %12, label %36

12:                                               ; preds = %4
  %13 = add nsw i64 %10, -1
  call void @llvm.lifetime.start.p0(i64 8, ptr nonnull %6) #30
  store i64 0, ptr %6, align 8, !tbaa !51
  call void @llvm.lifetime.start.p0(i64 8, ptr nonnull %7) #30
  store i64 %13, ptr %7, align 8, !tbaa !51
  call void @llvm.lifetime.start.p0(i64 8, ptr nonnull %8) #30
  store i64 1, ptr %8, align 8, !tbaa !51
  call void @llvm.lifetime.start.p0(i64 4, ptr nonnull %9) #30
  store i32 0, ptr %9, align 4, !tbaa !28
  %14 = load i32, ptr %0, align 4, !tbaa !28
  call void @__kmpc_for_static_init_8(ptr nonnull @1, i32 %14, i32 34, ptr nonnull %9, ptr nonnull %6, ptr nonnull %7, ptr nonnull %8, i64 1, i64 1)
  %15 = load i64, ptr %7, align 8, !tbaa !51
  %16 = call i64 @llvm.smin.i64(i64 %15, i64 %13)
  store i64 %16, ptr %7, align 8, !tbaa !51
  %17 = load i64, ptr %6, align 8, !tbaa !51
  %.not14 = icmp sgt i64 %17, %16
  br i1 %.not14, label %._crit_edge, label %.lr.ph

.lr.ph:                                           ; preds = %12
  %.val = load ptr, ptr %3, align 8, !tbaa !1037
  %18 = getelementptr inbounds nuw i8, ptr %3, i64 8
  %.val.val = load ptr, ptr %.val, align 8, !tbaa !327
  %19 = getelementptr inbounds nuw i8, ptr %5, i64 3
  br label %20

20:                                               ; preds = %.lr.ph, %31
  %.015 = phi i64 [ %17, %.lr.ph ], [ %35, %31 ]
  %.val13 = load ptr, ptr %18, align 8
  call void @llvm.lifetime.start.p0(i64 4, ptr nonnull %5) #30
  store i32 0, ptr %5, align 4
  %.idx.i = mul nsw i64 %.015, 12
  %21 = getelementptr inbounds i8, ptr %.val.val, i64 %.idx.i
  br label %22

22:                                               ; preds = %22, %20
  %indvars.iv.i.i = phi i64 [ 0, %20 ], [ %indvars.iv.next.i.i, %22 ]
  %23 = sub nuw nsw i64 2, %indvars.iv.i.i
  %24 = getelementptr inbounds nuw i32, ptr %21, i64 %23
  %25 = load i32, ptr %24, align 4, !tbaa !28
  %26 = uitofp i32 %25 to float
  %27 = fmul float %26, 0x3E6FE00000000000
  %28 = fptoui float %27 to i32
  %29 = trunc i32 %28 to i8
  %30 = getelementptr inbounds nuw i8, ptr %5, i64 %indvars.iv.i.i
  store i8 %29, ptr %30, align 1, !tbaa !43
  %indvars.iv.next.i.i = add nuw nsw i64 %indvars.iv.i.i, 1
  %exitcond.not.i.i = icmp eq i64 %indvars.iv.next.i.i, 3
  br i1 %exitcond.not.i.i, label %31, label %22, !llvm.loop !1039

31:                                               ; preds = %22
  store i8 0, ptr %19, align 1, !tbaa !43
  %32 = load float, ptr %5, align 4
  %33 = load ptr, ptr %.val13, align 8, !tbaa !917
  %34 = getelementptr inbounds float, ptr %33, i64 %.015
  store float %32, ptr %34, align 4, !tbaa !200
  call void @llvm.lifetime.end.p0(i64 4, ptr nonnull %5) #30
  %35 = add i64 %.015, 1
  %exitcond.not = icmp eq i64 %.015, %16
  br i1 %exitcond.not, label %._crit_edge, label %20

._crit_edge:                                      ; preds = %31, %12
  call void @__kmpc_for_static_fini(ptr nonnull @1, i32 %14)
  call void @llvm.lifetime.end.p0(i64 4, ptr nonnull %9) #30
  call void @llvm.lifetime.end.p0(i64 8, ptr nonnull %8) #30
  call void @llvm.lifetime.end.p0(i64 8, ptr nonnull %7) #30
  call void @llvm.lifetime.end.p0(i64 8, ptr nonnull %6) #30
  br label %36

36:                                               ; preds = %._crit_edge, %4
  ret void
}